; Function Attrs: mustprogress uwtable
define noalias noundef nonnull ptr @lean_uv_timer_stop(ptr noundef %0, ptr noundef readnone captures(none) %1) local_unnamed_addr #0 {
  %3 = getelementptr i8, ptr %0, i64 16
  %.val = load ptr, ptr %3, align 8, !tbaa !25
  %4 = getelementptr inbounds nuw i8, ptr %.val, i64 28
  %5 = load i32, ptr %4, align 4, !tbaa !33
  %6 = icmp eq i32 %5, 1
  br i1 %6, label %7, label %22

7:                                                ; preds = %2
  tail call void @_ZN4lean15event_loop_lockEPNS_12event_loop_tE(ptr noundef nonnull @_ZN4lean9global_evE)
  %8 = load ptr, ptr %.val, align 8, !tbaa !16
  %9 = tail call i32 @uv_timer_stop(ptr noundef %8)
  tail call void @_ZN4lean17event_loop_unlockEPNS_12event_loop_tE(ptr noundef nonnull @_ZN4lean9global_evE)
  store i32 2, ptr %4, align 4, !tbaa !33
  %10 = ptrtoint ptr %0 to i64
  %11 = and i64 %10, 1
  %.not = icmp eq i64 %11, 0
  br i1 %.not, label %12, label %_ZL8lean_decP11lean_object.exit

12:                                               ; preds = %7
  %13 = load i32, ptr %0, align 4, !tbaa !12
  %14 = icmp sgt i32 %13, 1
  br i1 %14, label %15, label %17, !prof !15

15:                                               ; preds = %12
  %16 = add nsw i32 %13, -1
  store i32 %16, ptr %0, align 4, !tbaa !12
  br label %_ZL8lean_decP11lean_object.exit

17:                                               ; preds = %12
  %.not.i = icmp eq i32 %13, 0
  br i1 %.not.i, label %_ZL8lean_decP11lean_object.exit, label %18

18:                                               ; preds = %17
  tail call void @lean_dec_ref_cold(ptr noundef nonnull %0)
  br label %_ZL8lean_decP11lean_object.exit

_ZL8lean_decP11lean_object.exit:                  ; preds = %18, %17, %15, %7
  tail call void @lean_inc_heartbeat()
  %19 = tail call noalias ptr @mi_malloc_small(i64 noundef 24) #8
  %20 = icmp eq ptr %19, null
  br i1 %20, label %21, label %_ZL20lean_io_result_mk_okP11lean_object.exit

21:                                               ; preds = %_ZL8lean_decP11lean_object.exit
  tail call void @lean_internal_panic_out_of_memory() #10
  unreachable

22:                                               ; preds = %2
  tail call void @lean_inc_heartbeat()
  %23 = tail call noalias ptr @mi_malloc_small(i64 noundef 24) #8
  %24 = icmp eq ptr %23, null
  br i1 %24, label %25, label %_ZL20lean_io_result_mk_okP11lean_object.exit

25:                                               ; preds = %22
  tail call void @lean_internal_panic_out_of_memory() #10
  unreachable

_ZL20lean_io_result_mk_okP11lean_object.exit:     ; preds = %22, %_ZL8lean_decP11lean_object.exit
  %.sink10 = phi ptr [ %19, %_ZL8lean_decP11lean_object.exit ], [ %23, %22 ]
  %26 = getelementptr inbounds nuw i8, ptr %.sink10, i64 4
  store i32 1, ptr %.sink10, align 4, !tbaa !12
  store i32 131096, ptr %26, align 4
  %27 = getelementptr inbounds nuw i8, ptr %.sink10, i64 8
  store ptr inttoptr (i64 1 to ptr), ptr %27, align 8, !tbaa !17
  %28 = getelementptr inbounds nuw i8, ptr %.sink10, i64 16
  store ptr inttoptr (i64 1 to ptr), ptr %28, align 8, !tbaa !17
  ret ptr %.sink10
}